; Function Attrs: mustprogress uwtable
define hidden void @_ZN3smt18quantifier_manager5resetEv(ptr noundef nonnull align 8 dereferenceable(13) %0) local_unnamed_addr #4 align 2 {
  %2 = load ptr, ptr %0, align 8, !tbaa !82
  %3 = getelementptr inbounds nuw i8, ptr %2, i64 8
  %4 = load ptr, ptr %3, align 8, !tbaa !633
  %5 = getelementptr inbounds nuw i8, ptr %2, i64 16
  %6 = load ptr, ptr %5, align 8, !tbaa !641
  %7 = getelementptr inbounds nuw i8, ptr %2, i64 1160
  %8 = load ptr, ptr %7, align 8, !tbaa !85
  %9 = load ptr, ptr %8, align 8, !tbaa !56
  %10 = getelementptr inbounds nuw i8, ptr %9, i64 24
  %11 = load ptr, ptr %10, align 8
  %12 = tail call noundef ptr %11(ptr noundef nonnull align 8 dereferenceable(8) %8)
  %13 = load ptr, ptr %0, align 8, !tbaa !82
  tail call void @_ZN3smt18quantifier_manager3impD2Ev(ptr noundef nonnull align 8 dereferenceable(1172) %13) #22
  %14 = load ptr, ptr %0, align 8, !tbaa !82
  tail call void @_ZN3smt18quantifier_manager3impC2ERS0_RNS_7contextER10smt_paramsPNS_25quantifier_manager_pluginE(ptr noundef nonnull align 8 dereferenceable(1172) %14, ptr noundef nonnull align 8 dereferenceable(13) %0, ptr noundef nonnull align 8 dereferenceable(10544) %4, ptr noundef nonnull align 8 dereferenceable(808) %6, ptr noundef %12)
  store ptr %14, ptr %0, align 8, !tbaa !82
  %15 = load ptr, ptr %12, align 8, !tbaa !56
  %16 = getelementptr inbounds nuw i8, ptr %15, i64 16
  %17 = load ptr, ptr %16, align 8
  tail call void %17(ptr noundef nonnull align 8 dereferenceable(8) %12, ptr noundef nonnull align 8 dereferenceable(13) %0)
  ret void
}